target datalayout = "e-m:e-p270:32:32-p271:32:32-p272:64:64-i64:64-i128:128-f80:128-n8:16:32:64-S128"
target triple = "x86_64-pc-linux-gnu"

%struct.BiquadsContext = type { ptr, i32, i32, i32, i32, i32, i32, i32, i32, double, double, double, double, ptr, %struct.AVChannelLayout, i32, i32, [3 x double], [3 x double], [3 x float], [3 x float], [3 x double], [3 x double], [3 x ptr], ptr, [2 x ptr], i32, i64, i32, ptr }
%struct.AVChannelLayout = type { i32, i32, %union.anon.1, ptr }
%union.anon.1 = type { i64 }

; Function Attrs: nounwind uwtable
define internal void @biquad_zdf_s16(ptr noundef %0, ptr noundef %1, ptr noundef %2, i32 noundef %3, ptr noundef %4, ptr noundef %5, i32 noundef %6) #1 {
  %8 = alloca ptr, align 8
  %9 = alloca ptr, align 8
  %10 = alloca ptr, align 8
  %11 = alloca i32, align 4
  %12 = alloca ptr, align 8
  %13 = alloca ptr, align 8
  %14 = alloca i32, align 4
  %15 = alloca ptr, align 8
  %16 = alloca ptr, align 8
  %17 = alloca ptr, align 8
  %18 = alloca ptr, align 8
  %19 = alloca ptr, align 8
  %20 = alloca float, align 4
  %21 = alloca float, align 4
  %22 = alloca float, align 4
  %23 = alloca float, align 4
  %24 = alloca float, align 4
  %25 = alloca float, align 4
  %26 = alloca float, align 4
  %27 = alloca float, align 4
  %28 = alloca float, align 4
  %29 = alloca float, align 4
  %30 = alloca float, align 4
  %31 = alloca i32, align 4
  %32 = alloca float, align 4
  %33 = alloca float, align 4
  %34 = alloca float, align 4
  %35 = alloca float, align 4
  %36 = alloca float, align 4
  store ptr %0, ptr %8, align 8, !tbaa !22
  store ptr %1, ptr %9, align 8, !tbaa !36
  store ptr %2, ptr %10, align 8, !tbaa !36
  store i32 %3, ptr %11, align 4, !tbaa !31
  store ptr %4, ptr %12, align 8, !tbaa !36
  store ptr %5, ptr %13, align 8, !tbaa !82
  store i32 %6, ptr %14, align 4, !tbaa !31
  call void @llvm.lifetime.start.p0(i64 8, ptr %15) #11
  %37 = load ptr, ptr %9, align 8, !tbaa !36
  store ptr %37, ptr %15, align 8, !tbaa !83
  call void @llvm.lifetime.start.p0(i64 8, ptr %16) #11
  %38 = load ptr, ptr %10, align 8, !tbaa !36
  store ptr %38, ptr %16, align 8, !tbaa !83
  call void @llvm.lifetime.start.p0(i64 8, ptr %17) #11
  %39 = load ptr, ptr %12, align 8, !tbaa !36
  store ptr %39, ptr %17, align 8, !tbaa !85
  call void @llvm.lifetime.start.p0(i64 8, ptr %18) #11
  %40 = load ptr, ptr %8, align 8, !tbaa !22
  %41 = getelementptr inbounds nuw %struct.BiquadsContext, ptr %40, i32 0, i32 19
  %42 = getelementptr inbounds [3 x float], ptr %41, i64 0, i64 0
  store ptr %42, ptr %18, align 8, !tbaa !85
  call void @llvm.lifetime.start.p0(i64 8, ptr %19) #11
  %43 = load ptr, ptr %8, align 8, !tbaa !22
  %44 = getelementptr inbounds nuw %struct.BiquadsContext, ptr %43, i32 0, i32 20
  %45 = getelementptr inbounds [3 x float], ptr %44, i64 0, i64 0
  store ptr %45, ptr %19, align 8, !tbaa !85
  call void @llvm.lifetime.start.p0(i64 4, ptr %20) #11
  %46 = load ptr, ptr %19, align 8, !tbaa !85
  %47 = getelementptr inbounds float, ptr %46, i64 0
  %48 = load float, ptr %47, align 4, !tbaa !80
  store float %48, ptr %20, align 4, !tbaa !80
  call void @llvm.lifetime.start.p0(i64 4, ptr %21) #11
  %49 = load ptr, ptr %19, align 8, !tbaa !85
  %50 = getelementptr inbounds float, ptr %49, i64 1
  %51 = load float, ptr %50, align 4, !tbaa !80
  store float %51, ptr %21, align 4, !tbaa !80
  call void @llvm.lifetime.start.p0(i64 4, ptr %22) #11
  %52 = load ptr, ptr %19, align 8, !tbaa !85
  %53 = getelementptr inbounds float, ptr %52, i64 2
  %54 = load float, ptr %53, align 4, !tbaa !80
  store float %54, ptr %22, align 4, !tbaa !80
  call void @llvm.lifetime.start.p0(i64 4, ptr %23) #11
  %55 = load ptr, ptr %18, align 8, !tbaa !85
  %56 = getelementptr inbounds float, ptr %55, i64 0
  %57 = load float, ptr %56, align 4, !tbaa !80
  store float %57, ptr %23, align 4, !tbaa !80
  call void @llvm.lifetime.start.p0(i64 4, ptr %24) #11
  %58 = load ptr, ptr %18, align 8, !tbaa !85
  %59 = getelementptr inbounds float, ptr %58, i64 1
  %60 = load float, ptr %59, align 4, !tbaa !80
  store float %60, ptr %24, align 4, !tbaa !80
  call void @llvm.lifetime.start.p0(i64 4, ptr %25) #11
  %61 = load ptr, ptr %18, align 8, !tbaa !85
  %62 = getelementptr inbounds float, ptr %61, i64 2
  %63 = load float, ptr %62, align 4, !tbaa !80
  store float %63, ptr %25, align 4, !tbaa !80
  call void @llvm.lifetime.start.p0(i64 4, ptr %26) #11
  %64 = load ptr, ptr %17, align 8, !tbaa !85
  %65 = getelementptr inbounds float, ptr %64, i64 0
  %66 = load float, ptr %65, align 4, !tbaa !80
  store float %66, ptr %26, align 4, !tbaa !80
  call void @llvm.lifetime.start.p0(i64 4, ptr %27) #11
  %67 = load ptr, ptr %17, align 8, !tbaa !85
  %68 = getelementptr inbounds float, ptr %67, i64 1
  %69 = load float, ptr %68, align 4, !tbaa !80
  store float %69, ptr %27, align 4, !tbaa !80
  call void @llvm.lifetime.start.p0(i64 4, ptr %28) #11
  %70 = load ptr, ptr %8, align 8, !tbaa !22
  %71 = getelementptr inbounds nuw %struct.BiquadsContext, ptr %70, i32 0, i32 12
  %72 = load double, ptr %71, align 8, !tbaa !87
  %73 = fptrunc nsz double %72 to float
  store float %73, ptr %28, align 4, !tbaa !80
  call void @llvm.lifetime.start.p0(i64 4, ptr %29) #11
  %74 = load float, ptr %28, align 4, !tbaa !80
  %75 = fpext nsz float %74 to double
  %76 = fsub nsz double 1.000000e+00, %75
  %77 = fptrunc nsz double %76 to float
  store float %77, ptr %29, align 4, !tbaa !80
  call void @llvm.lifetime.start.p0(i64 4, ptr %30) #11
  call void @llvm.lifetime.start.p0(i64 4, ptr %31) #11
  store i32 0, ptr %31, align 4, !tbaa !31
  br label %78

78:                                               ; preds = %171, %7
  %79 = load i32, ptr %31, align 4, !tbaa !31
  %80 = load i32, ptr %11, align 4, !tbaa !31
  %81 = icmp slt i32 %79, %80
  br i1 %81, label %83, label %82

82:                                               ; preds = %78
  call void @llvm.lifetime.end.p0(i64 4, ptr %31) #11
  br label %174

83:                                               ; preds = %78
  call void @llvm.lifetime.start.p0(i64 4, ptr %32) #11
  %84 = load ptr, ptr %15, align 8, !tbaa !83
  %85 = load i32, ptr %31, align 4, !tbaa !31
  %86 = sext i32 %85 to i64
  %87 = getelementptr inbounds i16, ptr %84, i64 %86
  %88 = load i16, ptr %87, align 2, !tbaa !88
  %89 = sitofp i16 %88 to float
  store float %89, ptr %32, align 4, !tbaa !80
  call void @llvm.lifetime.start.p0(i64 4, ptr %33) #11
  %90 = load float, ptr %32, align 4, !tbaa !80
  store float %90, ptr %33, align 4, !tbaa !80
  call void @llvm.lifetime.start.p0(i64 4, ptr %34) #11
  %91 = load float, ptr %33, align 4, !tbaa !80
  %92 = load float, ptr %27, align 4, !tbaa !80
  %93 = fsub nsz float %91, %92
  store float %93, ptr %34, align 4, !tbaa !80
  call void @llvm.lifetime.start.p0(i64 4, ptr %35) #11
  %94 = load float, ptr %23, align 4, !tbaa !80
  %95 = load float, ptr %26, align 4, !tbaa !80
  %96 = load float, ptr %24, align 4, !tbaa !80
  %97 = load float, ptr %34, align 4, !tbaa !80
  %98 = fmul nsz float %96, %97
  %99 = call nsz float @llvm.fmuladd.f32(float %94, float %95, float %98)
  store float %99, ptr %35, align 4, !tbaa !80
  call void @llvm.lifetime.start.p0(i64 4, ptr %36) #11
  %100 = load float, ptr %27, align 4, !tbaa !80
  %101 = load float, ptr %24, align 4, !tbaa !80
  %102 = load float, ptr %26, align 4, !tbaa !80
  %103 = call nsz float @llvm.fmuladd.f32(float %101, float %102, float %100)
  %104 = load float, ptr %25, align 4, !tbaa !80
  %105 = load float, ptr %34, align 4, !tbaa !80
  %106 = call nsz float @llvm.fmuladd.f32(float %104, float %105, float %103)
  store float %106, ptr %36, align 4, !tbaa !80
  %107 = load float, ptr %35, align 4, !tbaa !80
  %108 = load float, ptr %26, align 4, !tbaa !80
  %109 = fneg nsz float %108
  %110 = call nsz float @llvm.fmuladd.f32(float 2.000000e+00, float %107, float %109)
  store float %110, ptr %26, align 4, !tbaa !80
  %111 = load float, ptr %36, align 4, !tbaa !80
  %112 = load float, ptr %27, align 4, !tbaa !80
  %113 = fneg nsz float %112
  %114 = call nsz float @llvm.fmuladd.f32(float 2.000000e+00, float %111, float %113)
  store float %114, ptr %27, align 4, !tbaa !80
  %115 = load float, ptr %20, align 4, !tbaa !80
  %116 = load float, ptr %33, align 4, !tbaa !80
  %117 = load float, ptr %21, align 4, !tbaa !80
  %118 = load float, ptr %35, align 4, !tbaa !80
  %119 = fmul nsz float %117, %118
  %120 = call nsz float @llvm.fmuladd.f32(float %115, float %116, float %119)
  %121 = load float, ptr %22, align 4, !tbaa !80
  %122 = load float, ptr %36, align 4, !tbaa !80
  %123 = call nsz float @llvm.fmuladd.f32(float %121, float %122, float %120)
  store float %123, ptr %30, align 4, !tbaa !80
  %124 = load float, ptr %30, align 4, !tbaa !80
  %125 = load float, ptr %28, align 4, !tbaa !80
  %126 = load float, ptr %32, align 4, !tbaa !80
  %127 = load float, ptr %29, align 4, !tbaa !80
  %128 = fmul nsz float %126, %127
  %129 = call nsz float @llvm.fmuladd.f32(float %124, float %125, float %128)
  store float %129, ptr %30, align 4, !tbaa !80
  %130 = load i32, ptr %14, align 4, !tbaa !31
  %131 = icmp ne i32 %130, 0
  br i1 %131, label %132, label %139

132:                                              ; preds = %83
  %133 = load float, ptr %32, align 4, !tbaa !80
  %134 = fptosi float %133 to i16
  %135 = load ptr, ptr %16, align 8, !tbaa !83
  %136 = load i32, ptr %31, align 4, !tbaa !31
  %137 = sext i32 %136 to i64
  %138 = getelementptr inbounds i16, ptr %135, i64 %137
  store i16 %134, ptr %138, align 2, !tbaa !88
  br label %170

139:                                              ; preds = %83
  %140 = load float, ptr %30, align 4, !tbaa !80
  %141 = fcmp nsz olt float %140, -3.276800e+04
  br i1 %141, label %142, label %150

142:                                              ; preds = %139
  %143 = load ptr, ptr %13, align 8, !tbaa !82
  %144 = load i32, ptr %143, align 4, !tbaa !31
  %145 = add nsw i32 %144, 1
  store i32 %145, ptr %143, align 4, !tbaa !31
  %146 = load ptr, ptr %16, align 8, !tbaa !83
  %147 = load i32, ptr %31, align 4, !tbaa !31
  %148 = sext i32 %147 to i64
  %149 = getelementptr inbounds i16, ptr %146, i64 %148
  store i16 -32768, ptr %149, align 2, !tbaa !88
  br label %169

150:                                              ; preds = %139
  %151 = load float, ptr %30, align 4, !tbaa !80
  %152 = fcmp nsz ogt float %151, 3.276700e+04
  br i1 %152, label %153, label %161

153:                                              ; preds = %150
  %154 = load ptr, ptr %13, align 8, !tbaa !82
  %155 = load i32, ptr %154, align 4, !tbaa !31
  %156 = add nsw i32 %155, 1
  store i32 %156, ptr %154, align 4, !tbaa !31
  %157 = load ptr, ptr %16, align 8, !tbaa !83
  %158 = load i32, ptr %31, align 4, !tbaa !31
  %159 = sext i32 %158 to i64
  %160 = getelementptr inbounds i16, ptr %157, i64 %159
  store i16 32767, ptr %160, align 2, !tbaa !88
  br label %168

161:                                              ; preds = %150
  %162 = load float, ptr %30, align 4, !tbaa !80
  %163 = fptosi float %162 to i16
  %164 = load ptr, ptr %16, align 8, !tbaa !83
  %165 = load i32, ptr %31, align 4, !tbaa !31
  %166 = sext i32 %165 to i64
  %167 = getelementptr inbounds i16, ptr %164, i64 %166
  store i16 %163, ptr %167, align 2, !tbaa !88
  br label %168

168:                                              ; preds = %161, %153
  br label %169

169:                                              ; preds = %168, %142
  br label %170

170:                                              ; preds = %169, %132
  call void @llvm.lifetime.end.p0(i64 4, ptr %36) #11
  call void @llvm.lifetime.end.p0(i64 4, ptr %35) #11
  call void @llvm.lifetime.end.p0(i64 4, ptr %34) #11
  call void @llvm.lifetime.end.p0(i64 4, ptr %33) #11
  call void @llvm.lifetime.end.p0(i64 4, ptr %32) #11
  br label %171

171:                                              ; preds = %170
  %172 = load i32, ptr %31, align 4, !tbaa !31
  %173 = add nsw i32 %172, 1
  store i32 %173, ptr %31, align 4, !tbaa !31
  br label %78, !llvm.loop !115

174:                                              ; preds = %82
  %175 = load float, ptr %26, align 4, !tbaa !80
  %176 = load ptr, ptr %17, align 8, !tbaa !85
  %177 = getelementptr inbounds float, ptr %176, i64 0
  store float %175, ptr %177, align 4, !tbaa !80
  %178 = load float, ptr %27, align 4, !tbaa !80
  %179 = load ptr, ptr %17, align 8, !tbaa !85
  %180 = getelementptr inbounds float, ptr %179, i64 1
  store float %178, ptr %180, align 4, !tbaa !80
  call void @llvm.lifetime.end.p0(i64 4, ptr %30) #11
  call void @llvm.lifetime.end.p0(i64 4, ptr %29) #11
  call void @llvm.lifetime.end.p0(i64 4, ptr %28) #11
  call void @llvm.lifetime.end.p0(i64 4, ptr %27) #11
  call void @llvm.lifetime.end.p0(i64 4, ptr %26) #11
  call void @llvm.lifetime.end.p0(i64 4, ptr %25) #11
  call void @llvm.lifetime.end.p0(i64 4, ptr %24) #11
  call void @llvm.lifetime.end.p0(i64 4, ptr %23) #11
  call void @llvm.lifetime.end.p0(i64 4, ptr %22) #11
  call void @llvm.lifetime.end.p0(i64 4, ptr %21) #11
  call void @llvm.lifetime.end.p0(i64 4, ptr %20) #11
  call void @llvm.lifetime.end.p0(i64 8, ptr %19) #11
  call void @llvm.lifetime.end.p0(i64 8, ptr %18) #11
  call void @llvm.lifetime.end.p0(i64 8, ptr %17) #11
  call void @llvm.lifetime.end.p0(i64 8, ptr %16) #11
  call void @llvm.lifetime.end.p0(i64 8, ptr %15) #11
  ret void
}