; Function Attrs: nofree norecurse nosync nounwind memory(argmem: readwrite) uwtable
define internal void @biquad_zdf_s16(ptr noundef readonly captures(none) %0, ptr noundef readonly captures(none) %1, ptr noundef writeonly captures(none) %2, i32 noundef %3, ptr noundef captures(none) %4, ptr noundef captures(none) %5, i32 noundef %6) #7 {
  %8 = getelementptr inbounds nuw i8, ptr %0, i64 160
  %9 = getelementptr inbounds nuw i8, ptr %0, i64 172
  %10 = load float, ptr %9, align 4, !tbaa !73
  %11 = getelementptr inbounds nuw i8, ptr %0, i64 176
  %12 = load float, ptr %11, align 4, !tbaa !73
  %13 = getelementptr inbounds nuw i8, ptr %0, i64 180
  %14 = load float, ptr %13, align 4, !tbaa !73
  %15 = load float, ptr %8, align 4, !tbaa !73
  %16 = getelementptr inbounds nuw i8, ptr %0, i64 164
  %17 = load float, ptr %16, align 4, !tbaa !73
  %18 = getelementptr inbounds nuw i8, ptr %0, i64 168
  %19 = load float, ptr %18, align 4, !tbaa !73
  %20 = load float, ptr %4, align 4, !tbaa !73
  %21 = getelementptr inbounds nuw i8, ptr %4, i64 4
  %22 = load float, ptr %21, align 4, !tbaa !73
  %23 = getelementptr inbounds nuw i8, ptr %0, i64 64
  %24 = load double, ptr %23, align 8, !tbaa !75
  %25 = fptrunc nsz double %24 to float
  %26 = fsub nsz float 1.000000e+00, %25
  %27 = icmp sgt i32 %3, 0
  br i1 %27, label %.lr.ph, label %._crit_edge

.lr.ph:                                           ; preds = %7
  %.not = icmp eq i32 %6, 0
  %wide.trip.count80 = zext nneg i32 %3 to i64
  br i1 %.not, label %.lr.ph.split.us, label %.lr.ph.split

.lr.ph.split.us:                                  ; preds = %.lr.ph, %56
  %indvars.iv77 = phi i64 [ %indvars.iv.next78, %56 ], [ 0, %.lr.ph ]
  %.069.us = phi float [ %37, %56 ], [ %20, %.lr.ph ]
  %.06468.us = phi float [ %39, %56 ], [ %22, %.lr.ph ]
  %28 = getelementptr inbounds nuw i16, ptr %1, i64 %indvars.iv77
  %29 = load i16, ptr %28, align 2, !tbaa !76
  %30 = sitofp i16 %29 to float
  %31 = fsub nsz float %30, %.06468.us
  %32 = fmul nsz float %17, %31
  %33 = tail call nsz float @llvm.fmuladd.f32(float %15, float %.069.us, float %32)
  %34 = tail call nsz float @llvm.fmuladd.f32(float %17, float %.069.us, float %.06468.us)
  %35 = tail call nsz float @llvm.fmuladd.f32(float %19, float %31, float %34)
  %36 = fneg nsz float %.069.us
  %37 = tail call nsz float @llvm.fmuladd.f32(float %33, float 2.000000e+00, float %36)
  %38 = fneg nsz float %.06468.us
  %39 = tail call nsz float @llvm.fmuladd.f32(float %35, float 2.000000e+00, float %38)
  %40 = fmul nsz float %12, %33
  %41 = tail call nsz float @llvm.fmuladd.f32(float %10, float %30, float %40)
  %42 = tail call nsz float @llvm.fmuladd.f32(float %14, float %35, float %41)
  %43 = fmul nsz float %26, %30
  %44 = tail call nsz float @llvm.fmuladd.f32(float %42, float %25, float %43)
  %45 = fcmp nsz olt float %44, -3.276800e+04
  br i1 %45, label %53, label %46

46:                                               ; preds = %.lr.ph.split.us
  %47 = fcmp nsz ogt float %44, 3.276700e+04
  br i1 %47, label %50, label %48

48:                                               ; preds = %46
  %49 = fptosi float %44 to i16
  br label %56

50:                                               ; preds = %46
  %51 = load i32, ptr %5, align 4, !tbaa !30
  %52 = add nsw i32 %51, 1
  store i32 %52, ptr %5, align 4, !tbaa !30
  br label %56

53:                                               ; preds = %.lr.ph.split.us
  %54 = load i32, ptr %5, align 4, !tbaa !30
  %55 = add nsw i32 %54, 1
  store i32 %55, ptr %5, align 4, !tbaa !30
  br label %56

56:                                               ; preds = %53, %50, %48
  %.sink = phi i16 [ -32768, %53 ], [ 32767, %50 ], [ %49, %48 ]
  %57 = getelementptr inbounds nuw i16, ptr %2, i64 %indvars.iv77
  store i16 %.sink, ptr %57, align 2, !tbaa !76
  %indvars.iv.next78 = add nuw nsw i64 %indvars.iv77, 1
  %exitcond81.not = icmp eq i64 %indvars.iv.next78, %wide.trip.count80
  br i1 %exitcond81.not, label %._crit_edge, label %.lr.ph.split.us, !llvm.loop !102

._crit_edge:                                      ; preds = %.lr.ph.split, %56, %7
  %.064.lcssa = phi float [ %22, %7 ], [ %39, %56 ], [ %69, %.lr.ph.split ]
  %.0.lcssa = phi float [ %20, %7 ], [ %37, %56 ], [ %67, %.lr.ph.split ]
  store float %.0.lcssa, ptr %4, align 4, !tbaa !73
  store float %.064.lcssa, ptr %21, align 4, !tbaa !73
  ret void

.lr.ph.split:                                     ; preds = %.lr.ph, %.lr.ph.split
  %indvars.iv = phi i64 [ %indvars.iv.next, %.lr.ph.split ], [ 0, %.lr.ph ]
  %.069 = phi float [ %67, %.lr.ph.split ], [ %20, %.lr.ph ]
  %.06468 = phi float [ %69, %.lr.ph.split ], [ %22, %.lr.ph ]
  %58 = getelementptr inbounds nuw i16, ptr %1, i64 %indvars.iv
  %59 = load i16, ptr %58, align 2, !tbaa !76
  %60 = sitofp i16 %59 to float
  %61 = fsub nsz float %60, %.06468
  %62 = fmul nsz float %17, %61
  %63 = tail call nsz float @llvm.fmuladd.f32(float %15, float %.069, float %62)
  %64 = tail call nsz float @llvm.fmuladd.f32(float %17, float %.069, float %.06468)
  %65 = tail call nsz float @llvm.fmuladd.f32(float %19, float %61, float %64)
  %66 = fneg nsz float %.069
  %67 = tail call nsz float @llvm.fmuladd.f32(float %63, float 2.000000e+00, float %66)
  %68 = fneg nsz float %.06468
  %69 = tail call nsz float @llvm.fmuladd.f32(float %65, float 2.000000e+00, float %68)
  %70 = getelementptr inbounds nuw i16, ptr %2, i64 %indvars.iv
  store i16 %59, ptr %70, align 2, !tbaa !76
  %indvars.iv.next = add nuw nsw i64 %indvars.iv, 1
  %exitcond.not = icmp eq i64 %indvars.iv.next, %wide.trip.count80
  br i1 %exitcond.not, label %._crit_edge, label %.lr.ph.split, !llvm.loop !102
}